; Function Attrs: null_pointer_is_valid sspstrong uwtable
define i32 @oid_encoded2subid(ptr noundef %0, ptr noundef readonly captures(none) %1, i32 noundef %2, ptr noundef captures(none) %3) local_unnamed_addr #0 {
  %5 = icmp sgt i32 %2, 0
  br i1 %5, label %.lr.ph.preheader.i, label %._crit_edge.i

.lr.ph.preheader.i:                               ; preds = %4
  %wide.trip.count.i = zext nneg i32 %2 to i64
  br label %.lr.ph.i

.lr.ph.i:                                         ; preds = %.lr.ph.i, %.lr.ph.preheader.i
  %indvars.iv.i = phi i64 [ 0, %.lr.ph.preheader.i ], [ %indvars.iv.next.i, %.lr.ph.i ]
  %.06484.i = phi i32 [ 1, %.lr.ph.preheader.i ], [ %spec.select.i, %.lr.ph.i ]
  %6 = getelementptr i8, ptr %1, i64 %indvars.iv.i
  %7 = load i8, ptr %6, align 1
  %.not7282.i = icmp sgt i8 %7, -1
  %8 = zext i1 %.not7282.i to i32
  %spec.select.i = add i32 %.06484.i, %8
  %indvars.iv.next.i = add nuw nsw i64 %indvars.iv.i, 1
  %exitcond.not.i = icmp eq i64 %indvars.iv.next.i, %wide.trip.count.i
  br i1 %exitcond.not.i, label %._crit_edge.i, label %.lr.ph.i, !llvm.loop !13

._crit_edge.i:                                    ; preds = %.lr.ph.i, %4
  %.064.lcssa.i = phi i32 [ 1, %4 ], [ %spec.select.i, %.lr.ph.i ]
  %9 = zext i32 %.064.lcssa.i to i64
  %10 = shl nuw nsw i64 %9, 2
  %11 = tail call noalias ptr @wmem_alloc(ptr noundef %0, i64 noundef %10) #8
  store ptr %11, ptr %3, align 8
  %12 = getelementptr i32, ptr %11, i64 %9
  %13 = icmp eq i32 %.064.lcssa.i, 1
  br i1 %13, label %14, label %15

14:                                               ; preds = %._crit_edge.i
  store i32 0, ptr %11, align 4
  br label %oid_encoded2subid_sub.exit

15:                                               ; preds = %._crit_edge.i
  br i1 %5, label %.lr.ph89.preheader.i, label %oid_encoded2subid_sub.exit

.lr.ph89.preheader.i:                             ; preds = %15
  %wide.trip.count93.i = zext nneg i32 %2 to i64
  br label %.lr.ph89.i

.lr.ph89.i:                                       ; preds = %38, %.lr.ph89.preheader.i
  %indvars.iv91.i = phi i64 [ 0, %.lr.ph89.preheader.i ], [ %indvars.iv.next92.i, %38 ]
  %.05588.i = phi i64 [ 0, %.lr.ph89.preheader.i ], [ %.156.ph.i, %38 ]
  %.05887.i = phi i1 [ true, %.lr.ph89.preheader.i ], [ %.159.ph.i, %38 ]
  %.06186.i = phi ptr [ %11, %.lr.ph89.preheader.i ], [ %.162.ph.i, %38 ]
  %16 = getelementptr i8, ptr %1, i64 %indvars.iv91.i
  %17 = load i8, ptr %16, align 1
  %18 = shl i64 %.05588.i, 7
  %19 = and i8 %17, 127
  %20 = zext nneg i8 %19 to i64
  %21 = or disjoint i64 %18, %20
  %.not.i = icmp sgt i8 %17, -1
  br i1 %.not.i, label %22, label %38

22:                                               ; preds = %.lr.ph89.i
  br i1 %.05887.i, label %23, label %30

23:                                               ; preds = %22
  %24 = icmp ugt i64 %21, 39
  %25 = add i64 %21, -40
  %spec.select73.i = select i1 %24, i64 %25, i64 %21
  %spec.select74.i = zext i1 %24 to i32
  %26 = icmp ugt i64 %spec.select73.i, 39
  %27 = select i1 %24, i32 2, i32 1
  %28 = add i64 %spec.select73.i, -40
  %.4.i = select i1 %26, i64 %28, i64 %spec.select73.i
  %.1.i = select i1 %26, i32 %27, i32 %spec.select74.i
  %29 = getelementptr i8, ptr %.06186.i, i64 4
  store i32 %.1.i, ptr %.06186.i, align 4
  br label %30

30:                                               ; preds = %23, %22
  %.263.i = phi ptr [ %29, %23 ], [ %.06186.i, %22 ]
  %.257.i = phi i64 [ %.4.i, %23 ], [ %21, %22 ]
  %31 = icmp uge ptr %.263.i, %12
  %32 = icmp ugt i64 %.257.i, 4294967295
  %or.cond5.i = select i1 %31, i1 true, i1 %32
  br i1 %or.cond5.i, label %36, label %33

33:                                               ; preds = %30
  %34 = trunc nuw i64 %.257.i to i32
  %35 = getelementptr i8, ptr %.263.i, i64 4
  store i32 %34, ptr %.263.i, align 4
  br label %38

36:                                               ; preds = %30
  %37 = load ptr, ptr %3, align 8
  tail call void @wmem_free(ptr noundef %0, ptr noundef %37)
  store ptr null, ptr %3, align 8
  br label %oid_encoded2subid_sub.exit

38:                                               ; preds = %33, %.lr.ph89.i
  %.162.ph.i = phi ptr [ %.06186.i, %.lr.ph89.i ], [ %35, %33 ]
  %.159.ph.i = phi i1 [ %.05887.i, %.lr.ph89.i ], [ false, %33 ]
  %.156.ph.i = phi i64 [ %21, %.lr.ph89.i ], [ 0, %33 ]
  %indvars.iv.next92.i = add nuw nsw i64 %indvars.iv91.i, 1
  %exitcond94.not.i = icmp eq i64 %indvars.iv.next92.i, %wide.trip.count93.i
  br i1 %exitcond94.not.i, label %oid_encoded2subid_sub.exit, label %.lr.ph89.i, !llvm.loop !14

oid_encoded2subid_sub.exit:                       ; preds = %38, %14, %15, %36
  %.052.i = phi i32 [ 1, %14 ], [ 0, %36 ], [ %.064.lcssa.i, %15 ], [ %.064.lcssa.i, %38 ]
  ret i32 %.052.i
}